target datalayout = "e-m:e-p270:32:32-p271:32:32-p272:64:64-i64:64-i128:128-f80:128-n8:16:32:64-S128"
target triple = "x86_64-pc-linux-gnu"

%struct.crypto_hash_sha512_state = type { [8 x i64], [2 x i64], [128 x i8] }

@PAD = internal constant <{ i8, [127 x i8] }> <{ i8 -128, [127 x i8] zeroinitializer }>, align 16

; Function Attrs: inlinehint nounwind ssp uwtable
define internal void @store64_be(ptr noundef %0, i64 noundef %1) #6 {
  %3 = alloca ptr, align 8
  %4 = alloca i64, align 8
  store ptr %0, ptr %3, align 8
  store i64 %1, ptr %4, align 8
  %5 = load i64, ptr %4, align 8
  %6 = trunc i64 %5 to i8
  %7 = load ptr, ptr %3, align 8
  %8 = getelementptr i8, ptr %7, i64 7
  store i8 %6, ptr %8, align 1
  %9 = load i64, ptr %4, align 8
  %10 = lshr i64 %9, 8
  store i64 %10, ptr %4, align 8
  %11 = load i64, ptr %4, align 8
  %12 = trunc i64 %11 to i8
  %13 = load ptr, ptr %3, align 8
  %14 = getelementptr i8, ptr %13, i64 6
  store i8 %12, ptr %14, align 1
  %15 = load i64, ptr %4, align 8
  %16 = lshr i64 %15, 8
  store i64 %16, ptr %4, align 8
  %17 = load i64, ptr %4, align 8
  %18 = trunc i64 %17 to i8
  %19 = load ptr, ptr %3, align 8
  %20 = getelementptr i8, ptr %19, i64 5
  store i8 %18, ptr %20, align 1
  %21 = load i64, ptr %4, align 8
  %22 = lshr i64 %21, 8
  store i64 %22, ptr %4, align 8
  %23 = load i64, ptr %4, align 8
  %24 = trunc i64 %23 to i8
  %25 = load ptr, ptr %3, align 8
  %26 = getelementptr i8, ptr %25, i64 4
  store i8 %24, ptr %26, align 1
  %27 = load i64, ptr %4, align 8
  %28 = lshr i64 %27, 8
  store i64 %28, ptr %4, align 8
  %29 = load i64, ptr %4, align 8
  %30 = trunc i64 %29 to i8
  %31 = load ptr, ptr %3, align 8
  %32 = getelementptr i8, ptr %31, i64 3
  store i8 %30, ptr %32, align 1
  %33 = load i64, ptr %4, align 8
  %34 = lshr i64 %33, 8
  store i64 %34, ptr %4, align 8
  %35 = load i64, ptr %4, align 8
  %36 = trunc i64 %35 to i8
  %37 = load ptr, ptr %3, align 8
  %38 = getelementptr i8, ptr %37, i64 2
  store i8 %36, ptr %38, align 1
  %39 = load i64, ptr %4, align 8
  %40 = lshr i64 %39, 8
  store i64 %40, ptr %4, align 8
  %41 = load i64, ptr %4, align 8
  %42 = trunc i64 %41 to i8
  %43 = load ptr, ptr %3, align 8
  %44 = getelementptr i8, ptr %43, i64 1
  store i8 %42, ptr %44, align 1
  %45 = load i64, ptr %4, align 8
  %46 = lshr i64 %45, 8
  store i64 %46, ptr %4, align 8
  %47 = load i64, ptr %4, align 8
  %48 = trunc i64 %47 to i8
  %49 = load ptr, ptr %3, align 8
  %50 = getelementptr i8, ptr %49, i64 0
  store i8 %48, ptr %50, align 1
  ret void
}

; Function Attrs: alwaysinline nounwind
define internal ptr @memset.inline(ptr nonnull %0, i32 %1, i64 %2) #1 {
  %4 = alloca ptr, align 8
  %5 = alloca i32, align 4
  %6 = alloca i64, align 8
  store ptr %0, ptr %4, align 8
  store i32 %1, ptr %5, align 4
  store i64 %2, ptr %6, align 8
  %7 = load ptr, ptr %4, align 8
  %8 = load i32, ptr %5, align 4
  %9 = load i64, ptr %6, align 8
  %10 = load ptr, ptr %4, align 8
  %11 = call i64 @llvm.objectsize.i64.p0(ptr %10, i1 false, i1 true, i1 true)
  %12 = call ptr @__memset_chk(ptr noundef %7, i32 noundef %8, i64 noundef %9, i64 noundef %11) #7
  ret ptr %12
}

; Function Attrs: nounwind ssp uwtable
define internal void @be64enc_vect(ptr noundef %0, ptr noundef %1, i64 noundef %2) #0 {
  %4 = alloca ptr, align 8
  %5 = alloca ptr, align 8
  %6 = alloca i64, align 8
  %7 = alloca i64, align 8
  store ptr %0, ptr %4, align 8
  store ptr %1, ptr %5, align 8
  store i64 %2, ptr %6, align 8
  call void @llvm.lifetime.start.p0(i64 8, ptr %7) #7
  store i64 0, ptr %7, align 8
  br label %8

8:                                                ; preds = %22, %3
  %9 = load i64, ptr %7, align 8
  %10 = load i64, ptr %6, align 8
  %11 = udiv i64 %10, 8
  %12 = icmp ult i64 %9, %11
  br i1 %12, label %13, label %25

13:                                               ; preds = %8
  %14 = load ptr, ptr %4, align 8
  %15 = load i64, ptr %7, align 8
  %16 = mul i64 %15, 8
  %17 = getelementptr i8, ptr %14, i64 %16
  %18 = load ptr, ptr %5, align 8
  %19 = load i64, ptr %7, align 8
  %20 = getelementptr i64, ptr %18, i64 %19
  %21 = load i64, ptr %20, align 8
  call void @store64_be(ptr noundef %17, i64 noundef %21)
  br label %22

22:                                               ; preds = %13
  %23 = load i64, ptr %7, align 8
  %24 = add i64 %23, 1
  store i64 %24, ptr %7, align 8
  br label %8, !llvm.loop !13

25:                                               ; preds = %8
  call void @llvm.lifetime.end.p0(i64 8, ptr %7) #7
  ret void
}

; Function Attrs: nounwind ssp uwtable
define internal void @SHA512_Pad(ptr noundef %0, ptr noundef %1) #0 {
  %3 = alloca ptr, align 8
  %4 = alloca ptr, align 8
  %5 = alloca i32, align 4
  %6 = alloca i32, align 4
  store ptr %0, ptr %3, align 8
  store ptr %1, ptr %4, align 8
  call void @llvm.lifetime.start.p0(i64 4, ptr %5) #7
  call void @llvm.lifetime.start.p0(i64 4, ptr %6) #7
  fence acquire
  %7 = load ptr, ptr %3, align 8
  %8 = getelementptr inbounds nuw %struct.crypto_hash_sha512_state, ptr %7, i32 0, i32 1
  %9 = getelementptr [2 x i64], ptr %8, i64 0, i64 1
  %10 = load i64, ptr %9, align 8
  %11 = lshr i64 %10, 3
  %12 = and i64 %11, 127
  %13 = trunc i64 %12 to i32
  store i32 %13, ptr %5, align 4
  %14 = load i32, ptr %5, align 4
  %15 = icmp ult i32 %14, 112
  br i1 %15, label %16, label %38

16:                                               ; preds = %2
  store i32 0, ptr %6, align 4
  br label %17

17:                                               ; preds = %34, %16
  %18 = load i32, ptr %6, align 4
  %19 = load i32, ptr %5, align 4
  %20 = sub i32 112, %19
  %21 = icmp ult i32 %18, %20
  br i1 %21, label %22, label %37

22:                                               ; preds = %17
  %23 = load i32, ptr %6, align 4
  %24 = zext i32 %23 to i64
  %25 = getelementptr [128 x i8], ptr @PAD, i64 0, i64 %24
  %26 = load i8, ptr %25, align 1
  %27 = load ptr, ptr %3, align 8
  %28 = getelementptr inbounds nuw %struct.crypto_hash_sha512_state, ptr %27, i32 0, i32 2
  %29 = load i32, ptr %5, align 4
  %30 = load i32, ptr %6, align 4
  %31 = add i32 %29, %30
  %32 = zext i32 %31 to i64
  %33 = getelementptr [128 x i8], ptr %28, i64 0, i64 %32
  store i8 %26, ptr %33, align 1
  br label %34

34:                                               ; preds = %22
  %35 = load i32, ptr %6, align 4
  %36 = add i32 %35, 1
  store i32 %36, ptr %6, align 4
  br label %17, !llvm.loop !11

37:                                               ; preds = %17
  br label %74

38:                                               ; preds = %2
  store i32 0, ptr %6, align 4
  br label %39

39:                                               ; preds = %56, %38
  %40 = load i32, ptr %6, align 4
  %41 = load i32, ptr %5, align 4
  %42 = sub i32 128, %41
  %43 = icmp ult i32 %40, %42
  br i1 %43, label %44, label %59

44:                                               ; preds = %39
  %45 = load i32, ptr %6, align 4
  %46 = zext i32 %45 to i64
  %47 = getelementptr [128 x i8], ptr @PAD, i64 0, i64 %46
  %48 = load i8, ptr %47, align 1
  %49 = load ptr, ptr %3, align 8
  %50 = getelementptr inbounds nuw %struct.crypto_hash_sha512_state, ptr %49, i32 0, i32 2
  %51 = load i32, ptr %5, align 4
  %52 = load i32, ptr %6, align 4
  %53 = add i32 %51, %52
  %54 = zext i32 %53 to i64
  %55 = getelementptr [128 x i8], ptr %50, i64 0, i64 %54
  store i8 %48, ptr %55, align 1
  br label %56

56:                                               ; preds = %44
  %57 = load i32, ptr %6, align 4
  %58 = add i32 %57, 1
  store i32 %58, ptr %6, align 4
  br label %39, !llvm.loop !12

59:                                               ; preds = %39
  %60 = load ptr, ptr %3, align 8
  %61 = getelementptr inbounds nuw %struct.crypto_hash_sha512_state, ptr %60, i32 0, i32 0
  %62 = getelementptr inbounds [8 x i64], ptr %61, i64 0, i64 0
  %63 = load ptr, ptr %3, align 8
  %64 = getelementptr inbounds nuw %struct.crypto_hash_sha512_state, ptr %63, i32 0, i32 2
  %65 = getelementptr inbounds [128 x i8], ptr %64, i64 0, i64 0
  %66 = load ptr, ptr %4, align 8
  %67 = getelementptr i64, ptr %66, i64 0
  %68 = load ptr, ptr %4, align 8
  %69 = getelementptr i64, ptr %68, i64 80
  call void @SHA512_Transform(ptr noundef %62, ptr noundef %65, ptr noundef %67, ptr noundef %69)
  %70 = load ptr, ptr %3, align 8
  %71 = getelementptr inbounds nuw %struct.crypto_hash_sha512_state, ptr %70, i32 0, i32 2
  %72 = getelementptr [128 x i8], ptr %71, i64 0, i64 0
  %73 = call ptr @memset.inline(ptr noundef %72, i32 noundef 0, i64 noundef 112) #7
  br label %74

74:                                               ; preds = %59, %37
  %75 = load ptr, ptr %3, align 8
  %76 = getelementptr inbounds nuw %struct.crypto_hash_sha512_state, ptr %75, i32 0, i32 2
  %77 = getelementptr [128 x i8], ptr %76, i64 0, i64 112
  %78 = load ptr, ptr %3, align 8
  %79 = getelementptr inbounds nuw %struct.crypto_hash_sha512_state, ptr %78, i32 0, i32 1
  %80 = getelementptr inbounds [2 x i64], ptr %79, i64 0, i64 0
  call void @be64enc_vect(ptr noundef %77, ptr noundef %80, i64 noundef 16)
  %81 = load ptr, ptr %3, align 8
  %82 = getelementptr inbounds nuw %struct.crypto_hash_sha512_state, ptr %81, i32 0, i32 0
  %83 = getelementptr inbounds [8 x i64], ptr %82, i64 0, i64 0
  %84 = load ptr, ptr %3, align 8
  %85 = getelementptr inbounds nuw %struct.crypto_hash_sha512_state, ptr %84, i32 0, i32 2
  %86 = getelementptr inbounds [128 x i8], ptr %85, i64 0, i64 0
  %87 = load ptr, ptr %4, align 8
  %88 = getelementptr i64, ptr %87, i64 0
  %89 = load ptr, ptr %4, align 8
  %90 = getelementptr i64, ptr %89, i64 80
  call void @SHA512_Transform(ptr noundef %83, ptr noundef %86, ptr noundef %88, ptr noundef %90)
  call void @llvm.lifetime.end.p0(i64 4, ptr %6) #7
  call void @llvm.lifetime.end.p0(i64 4, ptr %5) #7
  ret void
}

; Function Attrs: nounwind ssp uwtable
define dso_local i32 @crypto_hash_sha512_final(ptr noundef nonnull %0, ptr noundef nonnull %1) #0 {
  %3 = alloca ptr, align 8
  %4 = alloca ptr, align 8
  %5 = alloca [88 x i64], align 16
  store ptr %0, ptr %3, align 8
  store ptr %1, ptr %4, align 8
  call void @llvm.lifetime.start.p0(i64 704, ptr %5) #7
  %6 = load ptr, ptr %3, align 8
  %7 = getelementptr inbounds [88 x i64], ptr %5, i64 0, i64 0
  call void @SHA512_Pad(ptr noundef %6, ptr noundef %7)
  %8 = load ptr, ptr %4, align 8
  %9 = load ptr, ptr %3, align 8
  %10 = getelementptr inbounds nuw %struct.crypto_hash_sha512_state, ptr %9, i32 0, i32 0
  %11 = getelementptr inbounds [8 x i64], ptr %10, i64 0, i64 0
  call void @be64enc_vect(ptr noundef %8, ptr noundef %11, i64 noundef 64)
  %12 = getelementptr inbounds [88 x i64], ptr %5, i64 0, i64 0
  call void @sodium_memzero(ptr noundef %12, i64 noundef 704)
  %13 = load ptr, ptr %3, align 8
  call void @sodium_memzero(ptr noundef %13, i64 noundef 208)
  call void @llvm.lifetime.end.p0(i64 704, ptr %5) #7
  ret i32 0
}