; Function Attrs: nounwind ssp uwtable
define dso_local noundef i32 @crypto_hash_sha512_final(ptr noundef nonnull %0, ptr noundef nonnull writeonly captures(none) %1) local_unnamed_addr #1 {
  %3 = alloca [88 x i64], align 16
  call void @llvm.lifetime.start.p0(i64 704, ptr nonnull %3) #7
  fence acquire
  %4 = getelementptr i8, ptr %0, i64 72
  %5 = load i64, ptr %4, align 8
  %6 = trunc i64 %5 to i32
  %7 = lshr i32 %6, 3
  %8 = and i32 %7, 127
  %9 = icmp samesign ult i32 %8, 112
  br i1 %9, label %.lr.ph.i, label %.preheader28.i

.preheader28.i:                                   ; preds = %2
  %10 = sub nuw nsw i32 128, %8
  %11 = zext nneg i32 %8 to i64
  %12 = getelementptr i8, ptr %0, i64 %11
  %scevgep.i = getelementptr i8, ptr %12, i64 80
  %13 = zext nneg i32 %10 to i64
  tail call void @llvm.memcpy.p0.p0.i64(ptr noundef nonnull align 1 dereferenceable(1) %scevgep.i, ptr noundef nonnull align 16 dereferenceable(1) @PAD, i64 %13, i1 false)
  %14 = getelementptr inbounds nuw i8, ptr %0, i64 80
  %15 = getelementptr inbounds nuw i8, ptr %3, i64 640
  call fastcc void @SHA512_Transform(ptr noundef nonnull %0, ptr noundef nonnull %14, ptr noundef nonnull %3, ptr noundef nonnull %15)
  call void @llvm.memset.p0.i64(ptr noundef nonnull align 1 dereferenceable(112) %14, i8 noundef 0, i64 noundef 112, i1 noundef false) #7
  br label %.loopexit.i

.lr.ph.i:                                         ; preds = %2
  %16 = zext nneg i32 %8 to i64
  %17 = getelementptr i8, ptr %0, i64 %16
  %scevgep32.i = getelementptr i8, ptr %17, i64 80
  %narrow.i = sub nuw nsw i32 112, %8
  %18 = zext nneg i32 %narrow.i to i64
  tail call void @llvm.memcpy.p0.p0.i64(ptr noundef nonnull align 1 dereferenceable(1) %scevgep32.i, ptr noundef nonnull align 16 dereferenceable(1) @PAD, i64 %18, i1 false)
  br label %.loopexit.i

.loopexit.i:                                      ; preds = %.lr.ph.i, %.preheader28.i
  %19 = getelementptr inbounds nuw i8, ptr %0, i64 64
  %20 = getelementptr i8, ptr %0, i64 192
  br label %.lr.ph.i.i

.lr.ph.i.i:                                       ; preds = %.lr.ph.i.i, %.loopexit.i
  %.06.i.i = phi i64 [ %47, %.lr.ph.i.i ], [ 0, %.loopexit.i ]
  %21 = shl nuw nsw i64 %.06.i.i, 3
  %22 = getelementptr i8, ptr %20, i64 %21
  %23 = getelementptr i64, ptr %19, i64 %.06.i.i
  %24 = load i64, ptr %23, align 8
  %25 = trunc i64 %24 to i8
  %26 = getelementptr i8, ptr %22, i64 7
  store i8 %25, ptr %26, align 1
  %27 = lshr i64 %24, 8
  %28 = trunc i64 %27 to i8
  %29 = getelementptr i8, ptr %22, i64 6
  store i8 %28, ptr %29, align 1
  %30 = lshr i64 %24, 16
  %31 = trunc i64 %30 to i8
  %32 = getelementptr i8, ptr %22, i64 5
  store i8 %31, ptr %32, align 1
  %33 = lshr i64 %24, 24
  %34 = trunc i64 %33 to i8
  %35 = getelementptr i8, ptr %22, i64 4
  store i8 %34, ptr %35, align 1
  %36 = lshr i64 %24, 32
  %37 = trunc i64 %36 to i8
  %38 = getelementptr i8, ptr %22, i64 3
  store i8 %37, ptr %38, align 1
  %39 = lshr i64 %24, 40
  %40 = trunc i64 %39 to i8
  %41 = getelementptr i8, ptr %22, i64 2
  store i8 %40, ptr %41, align 1
  %42 = lshr i64 %24, 48
  %43 = trunc i64 %42 to i8
  %44 = getelementptr i8, ptr %22, i64 1
  store i8 %43, ptr %44, align 1
  %45 = lshr i64 %24, 56
  %46 = trunc nuw i64 %45 to i8
  store i8 %46, ptr %22, align 1
  %47 = add nuw nsw i64 %.06.i.i, 1
  %exitcond.not.i.i = icmp eq i64 %47, 2
  br i1 %exitcond.not.i.i, label %SHA512_Pad.exit, label %.lr.ph.i.i, !llvm.loop !11

SHA512_Pad.exit:                                  ; preds = %.lr.ph.i.i
  %48 = getelementptr inbounds nuw i8, ptr %0, i64 80
  %49 = getelementptr inbounds nuw i8, ptr %3, i64 640
  call fastcc void @SHA512_Transform(ptr noundef nonnull %0, ptr noundef nonnull %48, ptr noundef nonnull %3, ptr noundef nonnull %49)
  br label %.lr.ph.i4

.lr.ph.i4:                                        ; preds = %.lr.ph.i4, %SHA512_Pad.exit
  %.06.i = phi i64 [ %76, %.lr.ph.i4 ], [ 0, %SHA512_Pad.exit ]
  %50 = shl nuw nsw i64 %.06.i, 3
  %51 = getelementptr i8, ptr %1, i64 %50
  %52 = getelementptr i64, ptr %0, i64 %.06.i
  %53 = load i64, ptr %52, align 8
  %54 = trunc i64 %53 to i8
  %55 = getelementptr i8, ptr %51, i64 7
  store i8 %54, ptr %55, align 1
  %56 = lshr i64 %53, 8
  %57 = trunc i64 %56 to i8
  %58 = getelementptr i8, ptr %51, i64 6
  store i8 %57, ptr %58, align 1
  %59 = lshr i64 %53, 16
  %60 = trunc i64 %59 to i8
  %61 = getelementptr i8, ptr %51, i64 5
  store i8 %60, ptr %61, align 1
  %62 = lshr i64 %53, 24
  %63 = trunc i64 %62 to i8
  %64 = getelementptr i8, ptr %51, i64 4
  store i8 %63, ptr %64, align 1
  %65 = lshr i64 %53, 32
  %66 = trunc i64 %65 to i8
  %67 = getelementptr i8, ptr %51, i64 3
  store i8 %66, ptr %67, align 1
  %68 = lshr i64 %53, 40
  %69 = trunc i64 %68 to i8
  %70 = getelementptr i8, ptr %51, i64 2
  store i8 %69, ptr %70, align 1
  %71 = lshr i64 %53, 48
  %72 = trunc i64 %71 to i8
  %73 = getelementptr i8, ptr %51, i64 1
  store i8 %72, ptr %73, align 1
  %74 = lshr i64 %53, 56
  %75 = trunc nuw i64 %74 to i8
  store i8 %75, ptr %51, align 1
  %76 = add nuw nsw i64 %.06.i, 1
  %exitcond.not.i = icmp eq i64 %76, 8
  br i1 %exitcond.not.i, label %be64enc_vect.exit, label %.lr.ph.i4, !llvm.loop !11

be64enc_vect.exit:                                ; preds = %.lr.ph.i4
  call void @sodium_memzero(ptr noundef nonnull %3, i64 noundef 704) #7
  call void @sodium_memzero(ptr noundef nonnull %0, i64 noundef 208) #7
  call void @llvm.lifetime.end.p0(i64 704, ptr nonnull %3) #7
  ret i32 0
}